target datalayout = "e-m:e-p270:32:32-p271:32:32-p272:64:64-i64:64-i128:128-f80:128-n8:16:32:64-S128"
target triple = "x86_64-pc-linux-gnu"

; Function Attrs: alwaysinline nounwind willreturn memory(none) uwtable
define internal float @av_clipf_c(float noundef %0, float noundef %1, float noundef %2) #8 {
  %4 = alloca float, align 4
  %5 = alloca float, align 4
  %6 = alloca float, align 4
  store float %0, ptr %4, align 4, !tbaa !78
  store float %1, ptr %5, align 4, !tbaa !78
  store float %2, ptr %6, align 4, !tbaa !78
  %7 = load float, ptr %4, align 4, !tbaa !78
  %8 = load float, ptr %5, align 4, !tbaa !78
  %9 = fcmp nsz ogt float %7, %8
  br i1 %9, label %10, label %12

10:                                               ; preds = %3
  %11 = load float, ptr %4, align 4, !tbaa !78
  br label %14

12:                                               ; preds = %3
  %13 = load float, ptr %5, align 4, !tbaa !78
  br label %14

14:                                               ; preds = %12, %10
  %15 = phi nsz float [ %11, %10 ], [ %13, %12 ]
  %16 = load float, ptr %6, align 4, !tbaa !78
  %17 = fcmp nsz ogt float %15, %16
  br i1 %17, label %18, label %20

18:                                               ; preds = %14
  %19 = load float, ptr %6, align 4, !tbaa !78
  br label %30

20:                                               ; preds = %14
  %21 = load float, ptr %4, align 4, !tbaa !78
  %22 = load float, ptr %5, align 4, !tbaa !78
  %23 = fcmp nsz ogt float %21, %22
  br i1 %23, label %24, label %26

24:                                               ; preds = %20
  %25 = load float, ptr %4, align 4, !tbaa !78
  br label %28

26:                                               ; preds = %20
  %27 = load float, ptr %5, align 4, !tbaa !78
  br label %28

28:                                               ; preds = %26, %24
  %29 = phi nsz float [ %25, %24 ], [ %27, %26 ]
  br label %30

30:                                               ; preds = %28, %18
  %31 = phi nsz float [ %19, %18 ], [ %29, %28 ]
  ret float %31
}

; Function Attrs: nounwind uwtable
define internal i32 @get_lin_bin_sign(float noundef %0, i32 noundef %1) #1 {
  %3 = alloca float, align 4
  %4 = alloca i32, align 4
  store float %0, ptr %3, align 4, !tbaa !78
  store i32 %1, ptr %4, align 4, !tbaa !24
  %5 = load float, ptr %3, align 4, !tbaa !78
  %6 = call nsz float @av_clipf_c(float noundef %5, float noundef -1.000000e+00, float noundef 1.000000e+00) #13
  %7 = fadd nsz float 1.000000e+00, %6
  %8 = fmul nsz float %7, 5.000000e-01
  %9 = load i32, ptr %4, align 4, !tbaa !24
  %10 = sub nsw i32 %9, 1
  %11 = sitofp i32 %10 to float
  %12 = fmul nsz float %8, %11
  %13 = call i64 @llvm.lrint.i64.f32(float %12)
  %14 = trunc i64 %13 to i32
  ret i32 %14
}