; Function Attrs: mustprogress nofree norecurse nosync nounwind willreturn memory(none) uwtable
define internal i32 @get_lin_bin_sign(float noundef %0, i32 noundef %1) #5 {
  %3 = fcmp nsz ogt float %0, -1.000000e+00
  %4 = select nsz i1 %3, float %0, float -1.000000e+00
  %5 = fcmp nsz ogt float %4, 1.000000e+00
  %..i = select nsz i1 %5, float 1.000000e+00, float %4
  %6 = fadd nsz float %..i, 1.000000e+00
  %7 = fmul nsz float %6, 5.000000e-01
  %8 = add nsw i32 %1, -1
  %9 = sitofp i32 %8 to float
  %10 = fmul nsz float %7, %9
  %11 = tail call i64 @llvm.lrint.i64.f32(float %10)
  %12 = trunc i64 %11 to i32
  ret i32 %12
}